target datalayout = "e-m:e-p270:32:32-p271:32:32-p272:64:64-i64:64-i128:128-f80:128-n8:16:32:64-S128"
target triple = "x86_64-pc-linux-gnu"

%struct.H5G_loc_t = type { ptr, ptr }
%struct.H5O_link_t = type { i32, i8, i64, i32, ptr, %union.anon }
%union.anon = type { %struct.H5O_link_ud_t }
%struct.H5O_link_ud_t = type { ptr, i64 }
%struct.H5O_loc_t = type { ptr, i64, i8 }
%struct.H5O_link_hard_t = type { i64 }

@H5G_init_g = external global i8, align 1
@H5_libterm_g = external global i8, align 1
@.str = private unnamed_addr constant [100 x i8] c"generated/home/dtcxzyw/WorkSpace/Projects/compilers/llvm-opt-benchmark/bench/hdf5/hdf5/src/H5Gloc.c\00", align 1
@H5E_CANTINIT_g = external global i64, align 8
@H5E_SYM_g = external global i64, align 8
@__func__.H5G__loc_insert = private unnamed_addr constant [16 x i8] c"H5G__loc_insert\00", align 1
@H5E_CANTINSERT_g = external global i64, align 8
@.str.30 = private unnamed_addr constant [24 x i8] c"unable to insert object\00", align 1
@.str.31 = private unnamed_addr constant [16 x i8] c"cannot set name\00", align 1

; Function Attrs: nounwind uwtable
define i32 @H5G__loc_insert(ptr noundef %0, ptr noundef %1, ptr noundef %2, i32 noundef %3, ptr noundef %4) #0 {
  %6 = alloca ptr, align 8
  %7 = alloca ptr, align 8
  %8 = alloca ptr, align 8
  %9 = alloca i32, align 4
  %10 = alloca ptr, align 8
  %11 = alloca %struct.H5O_link_t, align 8
  %12 = alloca i32, align 4
  %13 = alloca i8, align 1
  store ptr %0, ptr %6, align 8, !tbaa !9
  store ptr %1, ptr %7, align 8, !tbaa !32
  store ptr %2, ptr %8, align 8, !tbaa !9
  store i32 %3, ptr %9, align 4, !tbaa !7
  store ptr %4, ptr %10, align 8, !tbaa !3
  call void @llvm.lifetime.start.p0(i64 48, ptr %11) #7
  call void @llvm.lifetime.start.p0(i64 4, ptr %12) #7
  store i32 0, ptr %12, align 4, !tbaa !7
  call void @llvm.lifetime.start.p0(i64 1, ptr %13) #7
  store i8 0, ptr %13, align 1, !tbaa !11
  %14 = load i8, ptr @H5G_init_g, align 1, !tbaa !11, !range !13, !noundef !14
  %15 = trunc i8 %14 to i1
  br i1 %15, label %20, label %16

16:                                               ; preds = %5
  %17 = load i8, ptr @H5_libterm_g, align 1, !tbaa !11, !range !13, !noundef !14
  %18 = trunc i8 %17 to i1
  %19 = xor i1 %18, true
  br label %20

20:                                               ; preds = %16, %5
  %21 = phi i1 [ true, %5 ], [ %19, %16 ]
  %22 = xor i1 %21, true
  %23 = xor i1 %22, true
  %24 = zext i1 %23 to i32
  %25 = sext i32 %24 to i64
  %26 = call i64 @llvm.expect.i64(i64 %25, i64 1)
  %27 = icmp ne i64 %26, 0
  br i1 %27, label %28, label %99

28:                                               ; preds = %20
  %29 = getelementptr inbounds nuw %struct.H5O_link_t, ptr %11, i32 0, i32 0
  store i32 0, ptr %29, align 8, !tbaa !46
  %30 = getelementptr inbounds nuw %struct.H5O_link_t, ptr %11, i32 0, i32 3
  store i32 0, ptr %30, align 8, !tbaa !48
  %31 = getelementptr inbounds nuw %struct.H5O_link_t, ptr %11, i32 0, i32 2
  store i64 0, ptr %31, align 8, !tbaa !49
  %32 = getelementptr inbounds nuw %struct.H5O_link_t, ptr %11, i32 0, i32 1
  store i8 0, ptr %32, align 4, !tbaa !50
  %33 = load ptr, ptr %7, align 8, !tbaa !32
  %34 = getelementptr inbounds nuw %struct.H5O_link_t, ptr %11, i32 0, i32 4
  store ptr %33, ptr %34, align 8, !tbaa !51
  %35 = load ptr, ptr %8, align 8, !tbaa !9
  %36 = getelementptr inbounds nuw %struct.H5G_loc_t, ptr %35, i32 0, i32 0
  %37 = load ptr, ptr %36, align 8, !tbaa !21
  %38 = getelementptr inbounds nuw %struct.H5O_loc_t, ptr %37, i32 0, i32 1
  %39 = load i64, ptr %38, align 8, !tbaa !52
  %40 = getelementptr inbounds nuw %struct.H5O_link_t, ptr %11, i32 0, i32 5
  %41 = getelementptr inbounds nuw %struct.H5O_link_hard_t, ptr %40, i32 0, i32 0
  store i64 %39, ptr %41, align 8, !tbaa !34
  %42 = load ptr, ptr %6, align 8, !tbaa !9
  %43 = getelementptr inbounds nuw %struct.H5G_loc_t, ptr %42, i32 0, i32 0
  %44 = load ptr, ptr %43, align 8, !tbaa !21
  %45 = load i32, ptr %9, align 4, !tbaa !7
  %46 = load ptr, ptr %10, align 8, !tbaa !3
  %47 = call i32 @H5G_obj_insert(ptr noundef %44, ptr noundef %11, i1 noundef zeroext true, i32 noundef %45, ptr noundef %46)
  %48 = icmp slt i32 %47, 0
  br i1 %48, label %49, label %68

49:                                               ; preds = %28
  br label %50

50:                                               ; preds = %49
  br label %51

51:                                               ; preds = %50
  br label %52

52:                                               ; preds = %51
  %53 = load i64, ptr @H5E_SYM_g, align 8, !tbaa !15
  %54 = load i64, ptr @H5E_CANTINSERT_g, align 8, !tbaa !15
  %55 = call i32 (ptr, ptr, i32, i64, i64, ptr, ...) @H5E_printf_stack(ptr noundef @.str, ptr noundef @__func__.H5G__loc_insert, i32 noundef 560, i64 noundef %53, i64 noundef %54, ptr noundef @.str.30)
  br label %56

56:                                               ; preds = %52
  br label %57

57:                                               ; preds = %56
  store i8 1, ptr %13, align 1, !tbaa !11
  %58 = load i8, ptr %13, align 1, !tbaa !11, !range !13, !noundef !14
  %59 = trunc i8 %58 to i1
  %60 = zext i1 %59 to i8
  store i8 %60, ptr %13, align 1, !tbaa !11
  br label %61

61:                                               ; preds = %57
  br label %62

62:                                               ; preds = %61
  br label %63

63:                                               ; preds = %62
  store i32 -1, ptr %12, align 4, !tbaa !7
  br label %98

64:                                               ; No predecessors!
  br label %65

65:                                               ; preds = %64
  br label %66

66:                                               ; preds = %65
  br label %67

67:                                               ; preds = %66
  br label %68

68:                                               ; preds = %67, %28
  %69 = load ptr, ptr %6, align 8, !tbaa !9
  %70 = getelementptr inbounds nuw %struct.H5G_loc_t, ptr %69, i32 0, i32 1
  %71 = load ptr, ptr %70, align 8, !tbaa !25
  %72 = load ptr, ptr %8, align 8, !tbaa !9
  %73 = getelementptr inbounds nuw %struct.H5G_loc_t, ptr %72, i32 0, i32 1
  %74 = load ptr, ptr %73, align 8, !tbaa !25
  %75 = load ptr, ptr %7, align 8, !tbaa !32
  %76 = call i32 @H5G_name_set(ptr noundef %71, ptr noundef %74, ptr noundef %75)
  %77 = icmp slt i32 %76, 0
  br i1 %77, label %78, label %97

78:                                               ; preds = %68
  br label %79

79:                                               ; preds = %78
  br label %80

80:                                               ; preds = %79
  br label %81

81:                                               ; preds = %80
  %82 = load i64, ptr @H5E_SYM_g, align 8, !tbaa !15
  %83 = load i64, ptr @H5E_CANTINIT_g, align 8, !tbaa !15
  %84 = call i32 (ptr, ptr, i32, i64, i64, ptr, ...) @H5E_printf_stack(ptr noundef @.str, ptr noundef @__func__.H5G__loc_insert, i32 noundef 564, i64 noundef %82, i64 noundef %83, ptr noundef @.str.31)
  br label %85

85:                                               ; preds = %81
  br label %86

86:                                               ; preds = %85
  store i8 1, ptr %13, align 1, !tbaa !11
  %87 = load i8, ptr %13, align 1, !tbaa !11, !range !13, !noundef !14
  %88 = trunc i8 %87 to i1
  %89 = zext i1 %88 to i8
  store i8 %89, ptr %13, align 1, !tbaa !11
  br label %90

90:                                               ; preds = %86
  br label %91

91:                                               ; preds = %90
  br label %92

92:                                               ; preds = %91
  store i32 -1, ptr %12, align 4, !tbaa !7
  br label %98

93:                                               ; No predecessors!
  br label %94

94:                                               ; preds = %93
  br label %95

95:                                               ; preds = %94
  br label %96

96:                                               ; preds = %95
  br label %97

97:                                               ; preds = %96, %68
  br label %98

98:                                               ; preds = %97, %92, %63
  br label %99

99:                                               ; preds = %98, %20
  %100 = load i32, ptr %12, align 4, !tbaa !7
  call void @llvm.lifetime.end.p0(i64 1, ptr %13) #7
  call void @llvm.lifetime.end.p0(i64 4, ptr %12) #7
  call void @llvm.lifetime.end.p0(i64 48, ptr %11) #7
  ret i32 %100
}