; Function Attrs: nounwind uwtable
define range(i32 -1, 1) i32 @H5G__loc_insert(ptr noundef readonly captures(none) %0, ptr noundef %1, ptr noundef readonly captures(none) %2, i32 noundef %3, ptr noundef %4) local_unnamed_addr #0 {
  %6 = alloca %struct.H5O_link_t, align 8
  call void @llvm.lifetime.start.p0(i64 48, ptr nonnull %6) #9
  %7 = load i8, ptr @H5G_init_g, align 1, !tbaa !3, !range !7, !noundef !8
  %8 = trunc nuw i8 %7 to i1
  %9 = load i8, ptr @H5_libterm_g, align 1, !range !7
  %10 = trunc nuw i8 %9 to i1
  %11 = xor i1 %10, true
  %12 = select i1 %8, i1 true, i1 %11
  br i1 %12, label %13, label %40, !prof !9

13:                                               ; preds = %5
  store i32 0, ptr %6, align 8, !tbaa !29
  %14 = getelementptr inbounds nuw i8, ptr %6, i64 16
  store i32 0, ptr %14, align 8, !tbaa !32
  %15 = getelementptr inbounds nuw i8, ptr %6, i64 8
  store i64 0, ptr %15, align 8, !tbaa !33
  %16 = getelementptr inbounds nuw i8, ptr %6, i64 4
  store i8 0, ptr %16, align 4, !tbaa !34
  %17 = getelementptr inbounds nuw i8, ptr %6, i64 24
  store ptr %1, ptr %17, align 8, !tbaa !35
  %18 = load ptr, ptr %2, align 8, !tbaa !12
  %19 = getelementptr inbounds nuw i8, ptr %18, i64 8
  %20 = load i64, ptr %19, align 8, !tbaa !36
  %21 = getelementptr inbounds nuw i8, ptr %6, i64 32
  store i64 %20, ptr %21, align 8, !tbaa !18
  %22 = load ptr, ptr %0, align 8, !tbaa !12
  %23 = call i32 @H5G_obj_insert(ptr noundef %22, ptr noundef nonnull %6, i1 noundef zeroext true, i32 noundef %3, ptr noundef %4) #9
  %24 = icmp slt i32 %23, 0
  br i1 %24, label %25, label %29

25:                                               ; preds = %13
  %26 = load i64, ptr @H5E_SYM_g, align 8, !tbaa !10
  %27 = load i64, ptr @H5E_CANTINSERT_g, align 8, !tbaa !10
  %28 = call i32 (ptr, ptr, i32, i64, i64, ptr, ...) @H5E_printf_stack(ptr noundef nonnull @.str, ptr noundef nonnull @__func__.H5G__loc_insert, i32 noundef 560, i64 noundef %26, i64 noundef %27, ptr noundef nonnull @.str.30) #9
  br label %40

29:                                               ; preds = %13
  %30 = getelementptr inbounds nuw i8, ptr %0, i64 8
  %31 = load ptr, ptr %30, align 8, !tbaa !17
  %32 = getelementptr inbounds nuw i8, ptr %2, i64 8
  %33 = load ptr, ptr %32, align 8, !tbaa !17
  %34 = call i32 @H5G_name_set(ptr noundef %31, ptr noundef %33, ptr noundef %1) #9
  %35 = icmp slt i32 %34, 0
  br i1 %35, label %36, label %40

36:                                               ; preds = %29
  %37 = load i64, ptr @H5E_SYM_g, align 8, !tbaa !10
  %38 = load i64, ptr @H5E_CANTINIT_g, align 8, !tbaa !10
  %39 = call i32 (ptr, ptr, i32, i64, i64, ptr, ...) @H5E_printf_stack(ptr noundef nonnull @.str, ptr noundef nonnull @__func__.H5G__loc_insert, i32 noundef 564, i64 noundef %37, i64 noundef %38, ptr noundef nonnull @.str.31) #9
  br label %40

40:                                               ; preds = %25, %36, %29, %5
  %.0 = phi i32 [ -1, %25 ], [ -1, %36 ], [ 0, %29 ], [ 0, %5 ]
  call void @llvm.lifetime.end.p0(i64 48, ptr nonnull %6) #9
  ret i32 %.0
}